target datalayout = "e-m:e-p270:32:32-p271:32:32-p272:64:64-i64:64-i128:128-f80:128-n8:16:32:64-S128"
target triple = "x86_64-pc-linux-gnu"

%struct.rb_data_type_struct = type { ptr, %struct.anon.15, ptr, ptr, i64 }
%struct.anon.15 = type { ptr, ptr, ptr, ptr, [1 x ptr] }
%struct.RBasic = type { i64, i64 }
%struct.RString = type { %struct.RBasic, i64, %union.anon.16 }
%union.anon.16 = type { %struct.anon.17 }
%struct.anon.17 = type { ptr, %union.anon.18 }
%union.anon.18 = type { i64 }

@dir_data_type = internal constant %struct.rb_data_type_struct { ptr @.str.44, %struct.anon.15 { ptr @dir_refs, ptr @dir_free, ptr null, ptr null, [1 x ptr] zeroinitializer }, ptr null, ptr null, i64 16419 }, align 8
@.str.69 = private unnamed_addr constant [5 x i8] c"sort\00", align 1

; Function Attrs: inlinehint nounwind sspstrong willreturn memory(read) uwtable
define internal i64 @RSTRING_LEN(i64 noundef %0) #19 {
  %2 = alloca i64, align 8
  store i64 %0, ptr %2, align 8, !tbaa !7
  %3 = load i64, ptr %2, align 8, !tbaa !7
  %4 = inttoptr i64 %3 to ptr
  %5 = getelementptr inbounds nuw %struct.RString, ptr %4, i32 0, i32 1
  %6 = load i64, ptr %5, align 8, !tbaa !202
  ret i64 %6
}

; Function Attrs: inlinehint nounwind sspstrong willreturn memory(none) uwtable
define internal zeroext i1 @RB_NIL_OR_UNDEF_P(i64 noundef %0) #12 {
  %2 = alloca i64, align 8
  %3 = alloca i64, align 8
  %4 = alloca i64, align 8
  store i64 %0, ptr %2, align 8, !tbaa !7
  call void @llvm.lifetime.start.p0(i64 8, ptr %3) #26
  store i64 -33, ptr %3, align 8, !tbaa !7
  call void @llvm.lifetime.start.p0(i64 8, ptr %4) #26
  store i64 4, ptr %4, align 8, !tbaa !7
  %5 = load i64, ptr %2, align 8, !tbaa !7
  %6 = and i64 %5, -33
  %7 = icmp eq i64 %6, 4
  call void @llvm.lifetime.end.p0(i64 8, ptr %4) #26
  call void @llvm.lifetime.end.p0(i64 8, ptr %3) #26
  ret i1 %7
}

; Function Attrs: inlinehint nounwind sspstrong willreturn memory(none) uwtable
define internal zeroext i1 @RB_FIXNUM_P(i64 noundef %0) #12 {
  %2 = alloca i64, align 8
  store i64 %0, ptr %2, align 8, !tbaa !7
  %3 = load i64, ptr %2, align 8, !tbaa !7
  %4 = and i64 %3, 1
  %5 = icmp ne i64 %4, 0
  ret i1 %5
}

; Function Attrs: inlinehint nounwind sspstrong willreturn memory(none) uwtable
define internal zeroext i1 @RB_NIL_P(i64 noundef %0) #12 {
  %2 = alloca i64, align 8
  store i64 %0, ptr %2, align 8, !tbaa !7
  %3 = load i64, ptr %2, align 8, !tbaa !7
  %4 = icmp eq i64 %3, 4
  ret i1 %4
}

; Function Attrs: nounwind sspstrong uwtable
define internal i64 @dir_glob_option_base(i64 noundef %0) #0 {
  %2 = alloca i64, align 8
  %3 = alloca i64, align 8
  %4 = alloca ptr, align 8
  %5 = alloca ptr, align 8
  store i64 %0, ptr %3, align 8, !tbaa !7
  %6 = load i64, ptr %3, align 8, !tbaa !7
  %7 = call zeroext i1 @RB_NIL_OR_UNDEF_P(i64 noundef %6) #31
  br i1 %7, label %8, label %9

8:                                                ; preds = %1
  store i64 4, ptr %2, align 8
  br label %26

9:                                                ; preds = %1
  %10 = load i64, ptr %3, align 8, !tbaa !7
  %11 = call i32 @rb_typeddata_is_kind_of(i64 noundef %10, ptr noundef @dir_data_type)
  %12 = icmp ne i32 %11, 0
  br i1 %12, label %13, label %15

13:                                               ; preds = %9
  %14 = load i64, ptr %3, align 8, !tbaa !7
  store i64 %14, ptr %2, align 8
  br label %26

15:                                               ; preds = %9
  %16 = load i64, ptr %3, align 8, !tbaa !7
  %17 = call i64 @rb_get_path(i64 noundef %16)
  call void @llvm.lifetime.start.p0(i64 8, ptr %4) #26
  store ptr %3, ptr %4, align 8, !tbaa !48
  call void asm sideeffect "", "*m,~{dirflag},~{fpsr},~{flags}"(ptr elementtype(ptr) %4) #26, !srcloc !215
  %18 = load ptr, ptr %4, align 8, !tbaa !48
  store ptr %18, ptr %5, align 8, !tbaa !48
  call void @llvm.lifetime.end.p0(i64 8, ptr %4) #26
  %19 = load ptr, ptr %5, align 8, !tbaa !48
  store volatile i64 %17, ptr %19, align 8, !tbaa !7
  %20 = load i64, ptr %3, align 8, !tbaa !7
  %21 = call i64 @RSTRING_LEN(i64 noundef %20) #27
  %22 = icmp ne i64 %21, 0
  br i1 %22, label %24, label %23

23:                                               ; preds = %15
  store i64 4, ptr %2, align 8
  br label %26

24:                                               ; preds = %15
  %25 = load i64, ptr %3, align 8, !tbaa !7
  store i64 %25, ptr %2, align 8
  br label %26

26:                                               ; preds = %24, %23, %13, %8
  %27 = load i64, ptr %2, align 8
  ret i64 %27
}

; Function Attrs: nounwind sspstrong uwtable
define internal i32 @dir_glob_option_sort(i64 noundef %0) #0 {
  %2 = alloca i64, align 8
  store i64 %0, ptr %2, align 8, !tbaa !7
  %3 = load i64, ptr %2, align 8, !tbaa !7
  %4 = call i32 @rb_bool_expected(i64 noundef %3, ptr noundef @.str.69, i32 noundef 1)
  %5 = icmp ne i32 %4, 0
  %6 = select i1 %5, i32 0, i32 64
  ret i32 %6
}

; Function Attrs: inlinehint nounwind sspstrong uwtable
define internal i32 @rb_num2int_inline(i64 noundef %0) #2 {
  %2 = alloca i64, align 8
  %3 = alloca i64, align 8
  store i64 %0, ptr %2, align 8, !tbaa !7
  call void @llvm.lifetime.start.p0(i64 8, ptr %3) #26
  %4 = load i64, ptr %2, align 8, !tbaa !7
  %5 = call zeroext i1 @RB_FIXNUM_P(i64 noundef %4) #31
  br i1 %5, label %6, label %9

6:                                                ; preds = %1
  %7 = load i64, ptr %2, align 8, !tbaa !7
  %8 = call i64 @rb_fix2int(i64 noundef %7)
  store i64 %8, ptr %3, align 8, !tbaa !7
  br label %12

9:                                                ; preds = %1
  %10 = load i64, ptr %2, align 8, !tbaa !7
  %11 = call i64 @rb_num2int(i64 noundef %10)
  store i64 %11, ptr %3, align 8, !tbaa !7
  br label %12

12:                                               ; preds = %9, %6
  %13 = load i64, ptr %3, align 8, !tbaa !7
  %14 = trunc i64 %13 to i32
  call void @llvm.lifetime.end.p0(i64 8, ptr %3) #26
  ret i32 %14
}

; Function Attrs: nounwind sspstrong uwtable
define internal i64 @dir_s_glob(ptr noundef %0, i64 noundef %1, i64 noundef %2, i64 noundef %3, i64 noundef %4, i64 noundef %5) #0 {
  %7 = alloca i64, align 8
  %8 = alloca ptr, align 8
  %9 = alloca i64, align 8
  %10 = alloca i64, align 8
  %11 = alloca i64, align 8
  %12 = alloca i64, align 8
  %13 = alloca i64, align 8
  %14 = alloca i64, align 8
  %15 = alloca i32, align 4
  %16 = alloca i32, align 4
  store ptr %0, ptr %8, align 8, !tbaa !70
  store i64 %1, ptr %9, align 8, !tbaa !7
  store i64 %2, ptr %10, align 8, !tbaa !7
  store i64 %3, ptr %11, align 8, !tbaa !7
  store i64 %4, ptr %12, align 8, !tbaa !7
  store i64 %5, ptr %13, align 8, !tbaa !7
  call void @llvm.lifetime.start.p0(i64 8, ptr %14) #26
  %17 = load i64, ptr %10, align 8, !tbaa !7
  %18 = call i64 @rb_check_array_type(i64 noundef %17)
  store i64 %18, ptr %14, align 8, !tbaa !7
  call void @llvm.lifetime.start.p0(i64 4, ptr %15) #26
  %19 = load i64, ptr %11, align 8, !tbaa !7
  %20 = call i32 @rb_num2int_inline(i64 noundef %19)
  %21 = load i64, ptr %13, align 8, !tbaa !7
  %22 = call i32 @dir_glob_option_sort(i64 noundef %21)
  %23 = or i32 %20, %22
  %24 = and i32 %23, -9
  store i32 %24, ptr %15, align 4, !tbaa !21
  %25 = load i64, ptr %12, align 8, !tbaa !7
  %26 = call i64 @dir_glob_option_base(i64 noundef %25)
  store i64 %26, ptr %12, align 8, !tbaa !7
  %27 = load i64, ptr %14, align 8, !tbaa !7
  %28 = call zeroext i1 @RB_NIL_P(i64 noundef %27) #31
  br i1 %28, label %29, label %34

29:                                               ; preds = %6
  %30 = load i64, ptr %10, align 8, !tbaa !7
  %31 = load i64, ptr %12, align 8, !tbaa !7
  %32 = load i32, ptr %15, align 4, !tbaa !21
  %33 = call i64 @rb_push_glob(i64 noundef %30, i64 noundef %31, i32 noundef %32)
  store i64 %33, ptr %14, align 8, !tbaa !7
  br label %39

34:                                               ; preds = %6
  %35 = load i64, ptr %14, align 8, !tbaa !7
  %36 = load i64, ptr %12, align 8, !tbaa !7
  %37 = load i32, ptr %15, align 4, !tbaa !21
  %38 = call i64 @dir_globs(i64 noundef %35, i64 noundef %36, i32 noundef %37)
  store i64 %38, ptr %14, align 8, !tbaa !7
  br label %39

39:                                               ; preds = %34, %29
  %40 = call i32 @rb_block_given_p()
  %41 = icmp ne i32 %40, 0
  br i1 %41, label %42, label %45

42:                                               ; preds = %39
  %43 = load i64, ptr %14, align 8, !tbaa !7
  %44 = call i64 @rb_ary_each(i64 noundef %43)
  store i64 4, ptr %7, align 8
  store i32 1, ptr %16, align 4
  br label %47

45:                                               ; preds = %39
  %46 = load i64, ptr %14, align 8, !tbaa !7
  store i64 %46, ptr %7, align 8
  store i32 1, ptr %16, align 4
  br label %47

47:                                               ; preds = %45, %42
  call void @llvm.lifetime.end.p0(i64 4, ptr %15) #26
  call void @llvm.lifetime.end.p0(i64 8, ptr %14) #26
  %48 = load i64, ptr %7, align 8
  ret i64 %48
}