; Function Attrs: nounwind sspstrong uwtable
define internal i64 @dir_s_glob(ptr readnone captures(none) %0, i64 %1, i64 noundef %2, i64 noundef %3, i64 noundef %4, i64 noundef %5) #0 {
  %7 = alloca i64, align 8
  %8 = alloca ptr, align 8
  %9 = tail call i64 @rb_check_array_type(i64 noundef %2) #22
  %10 = and i64 %3, 1
  %.not.i = icmp eq i64 %10, 0
  br i1 %.not.i, label %13, label %11

11:                                               ; preds = %6
  %12 = tail call i64 @rb_fix2int(i64 noundef %3) #22
  br label %rb_num2int_inline.exit

13:                                               ; preds = %6
  %14 = tail call i64 @rb_num2int(i64 noundef %3) #22
  br label %rb_num2int_inline.exit

rb_num2int_inline.exit:                           ; preds = %11, %13
  %.0.i = phi i64 [ %12, %11 ], [ %14, %13 ]
  %15 = trunc i64 %.0.i to i32
  %16 = tail call i32 @rb_bool_expected(i64 noundef %5, ptr noundef nonnull @.str.69, i32 noundef 1) #22
  %.not.i15 = icmp eq i32 %16, 0
  %17 = select i1 %.not.i15, i32 64, i32 0
  %.masked = and i32 %15, -9
  %18 = or i32 %17, %.masked
  call void @llvm.lifetime.start.p0(i64 8, ptr nonnull %7)
  store i64 %4, ptr %7, align 8, !tbaa !7
  %19 = and i64 %4, -33
  %20 = icmp eq i64 %19, 4
  br i1 %20, label %dir_glob_option_base.exit, label %21

21:                                               ; preds = %rb_num2int_inline.exit
  %22 = tail call i32 @rb_typeddata_is_kind_of(i64 noundef %4, ptr noundef nonnull @dir_data_type) #22
  %.not.i16 = icmp eq i32 %22, 0
  br i1 %.not.i16, label %23, label %dir_glob_option_base.exit

23:                                               ; preds = %21
  %24 = tail call i64 @rb_get_path(i64 noundef %4) #22
  call void @llvm.lifetime.start.p0(i64 8, ptr nonnull %8) #22
  store ptr %7, ptr %8, align 8, !tbaa !47
  call void asm sideeffect "", "*m,~{dirflag},~{fpsr},~{flags}"(ptr nonnull elementtype(ptr) %8) #22, !srcloc !117
  %25 = load ptr, ptr %8, align 8, !tbaa !47
  call void @llvm.lifetime.end.p0(i64 8, ptr nonnull %8) #22
  store volatile i64 %24, ptr %25, align 8, !tbaa !7
  %26 = load i64, ptr %7, align 8, !tbaa !7
  %27 = inttoptr i64 %26 to ptr
  %28 = getelementptr inbounds nuw i8, ptr %27, i64 16
  %29 = load i64, ptr %28, align 8, !tbaa !118
  %.not1.i = icmp eq i64 %29, 0
  %..i = select i1 %.not1.i, i64 4, i64 %26
  br label %dir_glob_option_base.exit

dir_glob_option_base.exit:                        ; preds = %rb_num2int_inline.exit, %21, %23
  %.0.i17 = phi i64 [ 4, %rb_num2int_inline.exit ], [ %..i, %23 ], [ %4, %21 ]
  call void @llvm.lifetime.end.p0(i64 8, ptr nonnull %7)
  %30 = icmp eq i64 %9, 4
  br i1 %30, label %31, label %33

31:                                               ; preds = %dir_glob_option_base.exit
  %32 = call fastcc i64 @rb_push_glob(i64 noundef %2, i64 noundef %.0.i17, i32 noundef %18)
  br label %35

33:                                               ; preds = %dir_glob_option_base.exit
  %34 = call fastcc i64 @dir_globs(i64 noundef %9, i64 noundef %.0.i17, i32 noundef %18)
  br label %35

35:                                               ; preds = %33, %31
  %.014 = phi i64 [ %32, %31 ], [ %34, %33 ]
  %36 = call i32 @rb_block_given_p() #22
  %.not = icmp eq i32 %36, 0
  br i1 %.not, label %39, label %37

37:                                               ; preds = %35
  %38 = call i64 @rb_ary_each(i64 noundef %.014) #22
  br label %39

39:                                               ; preds = %35, %37
  %.0 = phi i64 [ 4, %37 ], [ %.014, %35 ]
  ret i64 %.0
}